; Function Attrs: nounwind uwtable
define zeroext range(i8 0, 2) i8 @l_Lean_Meta_ArgsPacker_onlyOneUnary(ptr noundef readonly captures(none) %0) local_unnamed_addr #1 {
lean_dec.exit16:
  %1 = getelementptr i8, ptr %0, i64 8
  %.val24 = load i64, ptr %1, align 8, !tbaa !4
  %.mask = and i64 %.val24, 9223372036854775807
  %.not = icmp eq i64 %.mask, 1
  br i1 %.not, label %2, label %34

2:                                                ; preds = %lean_dec.exit16
  %3 = load ptr, ptr @l_Lean_Meta_ArgsPacker_onlyOneUnary___closed__1, align 8, !tbaa !12
  %4 = ptrtoint ptr %3 to i64
  %5 = and i64 %4, 1
  %.not14.i = icmp eq i64 %5, 0
  br i1 %.not14.i, label %6, label %lean_dec.exit.i

6:                                                ; preds = %2
  %7 = load i32, ptr %3, align 4, !tbaa !8
  %8 = icmp sgt i32 %7, 1
  br i1 %8, label %9, label %11, !prof !11

9:                                                ; preds = %6
  %10 = add nsw i32 %7, -1
  store i32 %10, ptr %3, align 4, !tbaa !8
  br label %lean_dec.exit.i

11:                                               ; preds = %6
  %.not.i.i = icmp eq i32 %7, 0
  br i1 %.not.i.i, label %lean_dec.exit.i, label %12

12:                                               ; preds = %11
  tail call void @lean_dec_ref_cold(ptr noundef nonnull %3) #7
  br label %lean_dec.exit.i

lean_dec.exit.i:                                  ; preds = %12, %11, %9, %2
  %13 = getelementptr inbounds nuw i8, ptr %0, i64 24
  %14 = load ptr, ptr %13, align 8, !tbaa !12
  %15 = ptrtoint ptr %14 to i64
  %16 = and i64 %15, 1
  %.not.i11.i = icmp eq i64 %16, 0
  br i1 %.not.i11.i, label %17, label %lean_array_get.exit

17:                                               ; preds = %lean_dec.exit.i
  %.val.i.i.i = load i32, ptr %14, align 4, !tbaa !8
  %18 = icmp sgt i32 %.val.i.i.i, 0
  br i1 %18, label %19, label %21, !prof !11

19:                                               ; preds = %17
  %20 = add nuw i32 %.val.i.i.i, 1
  store i32 %20, ptr %14, align 4, !tbaa !8
  br label %lean_array_get.exit

21:                                               ; preds = %17
  %.not.i.i.i = icmp eq i32 %.val.i.i.i, 0
  br i1 %.not.i.i.i, label %lean_array_get.exit, label %22

22:                                               ; preds = %21
  tail call void @lean_inc_ref_cold(ptr noundef nonnull %14) #7
  br label %lean_array_get.exit

lean_array_get.exit:                              ; preds = %lean_dec.exit.i, %19, %21, %22
  %23 = getelementptr i8, ptr %14, i64 8
  %.val = load i64, ptr %23, align 8, !tbaa !4
  %24 = and i64 %15, 1
  %.not26 = icmp eq i64 %24, 0
  br i1 %.not26, label %25, label %lean_dec.exit

25:                                               ; preds = %lean_array_get.exit
  %26 = load i32, ptr %14, align 4, !tbaa !8
  %27 = icmp sgt i32 %26, 1
  br i1 %27, label %28, label %30, !prof !11

28:                                               ; preds = %25
  %29 = add nsw i32 %26, -1
  store i32 %29, ptr %14, align 4, !tbaa !8
  br label %lean_dec.exit

30:                                               ; preds = %25
  %.not.i17 = icmp eq i32 %26, 0
  br i1 %.not.i17, label %lean_dec.exit, label %31

31:                                               ; preds = %30
  tail call void @lean_dec_ref_cold(ptr noundef nonnull %14) #7
  br label %lean_dec.exit

lean_dec.exit:                                    ; preds = %31, %30, %28, %lean_array_get.exit
  %.mask27 = and i64 %.val, 9223372036854775807
  %32 = icmp eq i64 %.mask27, 1
  %33 = zext i1 %32 to i8
  br label %34

34:                                               ; preds = %lean_dec.exit16, %lean_dec.exit
  %.0 = phi i8 [ %33, %lean_dec.exit ], [ 0, %lean_dec.exit16 ]
  ret i8 %.0
}